(dp0
S'level_info'
p1
(dp2
S'max_level'
p3
I69
sS'levels'
p4
(lp5
I1400
aI2800
aI4200
aI5600
aI7000
aI8400
aI9800
aI11200
aI12600
aI14000
aI15400
aI16800
aI18200
aI19600
aI21000
aI22400
aI23800
aI25200
aI26600
aI28000
aI29400
aI30800
aI32200
aI33600
aI35000
aI36400
aI37800
aI39200
aI40600
aI42000
aI43400
aI44800
aI46200
aI47600
aI49000
aI50400
aI51800
aI53200
aI54600
aI56000
aI57400
aI58800
aI60200
aI61600
aI63000
aI64400
aI65800
aI67200
aI68600
aI70000
aI71400
aI72800
aI74200
aI75600
aI77000
aI78400
aI79800
aI81200
aI82600
aI84000
aI85400
aI86800
aI88200
aI89600
aI91000
aI92400
aI93800
aI95200
aI96600
ass.