(dp0
I0
(dp1
S'username'
p2
V
p3
sS'last_online_time'
p4
I0
sS'wealth'
p5
I0
sS'level'
p6
V4
p7
sS'experience'
p8
V360
p9
sS'equipments'
p10
NsS'health'
p11
I1000
sS'password'
p12
g3
sS'total_online_time'
p13
I0
sS'login_time'
p14
F1464774485.58
ssI535
(dp15
S'username'
p16
Vxuxh
p17
sS'last_online_time'
p18
F1464773964.824
sS'wealth'
p19
I0
sS'level'
p20
I1
sS'experience'
p21
I0
sS'equipments'
p22
NsS'health'
p23
I1000
sS'password'
p24
V1234
p25
sS'total_online_time'
p26
F0.0009999275207519531
sS'login_time'
p27
F1464773964.823
ss.