(dp0
L29427L
(dp1
S'username'
p2
(dp3
Vtype
p4
VSTRING
p5
sVvalue
p6
Vxuxh
p7
ssS'password'
p8
(dp9
Vtype
p10
VSTRING
p11
sVvalue
p12
V1234
p13
sssL50532L
(dp14
S'username'
p15
(dp16
Vtype
p17
VSTRING
p18
sVvalue
p19
Vgood
p20
ssS'password'
p21
(dp22
Vtype
p23
VSTRING
p24
sVvalue
p25
Vnice
p26
sss.