(dp0
I535
(dp1
S'username'
p2
Vxuxh
p3
sS'last_online_time'
p4
F1464699708.279
sS'wealth'
p5
I0
sS'level'
p6
V3
p7
sS'experience'
p8
V3000
p9
sS'equipments'
p10
NsS'health'
p11
I1000
sS'password'
p12
V1234
p13
sS'total_online_time'
p14
F0.0009999275207519531
sS'login_time'
p15
F1464699708.278
ss.