(dp0
S'user_info'
p1
(dp2
L2007679687313438068916400L
(dp3
S'username'
p4
Vnetease3
p5
sS'password'
p6
V123
p7
sS'total_online_time'
p8
F68.80800008773804
sS'last_login_time'
p9
F1451915657.57
ssL2047045955692132932993200L
(dp10
S'username'
p11
Vnetease4
p12
sS'password'
p13
V123
p14
sS'total_online_time'
p15
F80.95800018310547
sS'last_login_time'
p16
F1451915657.57
ssL7842079080624L
(dp17
S'username'
p18
Vtest1
p19
sS'password'
p20
V123
p21
sS'total_online_time'
p22
F243.5090000629425
sS'last_login_time'
p23
F1451908229.773
ssL609345375076352L
(dp24
S'username'
p25
Vxuxh
p26
sS'password'
p27
V123456
p28
sS'total_online_time'
p29
F4832.69300031662
sS'last_login_time'
p30
F1451900280.294
ssL1968313418934743204839600L
(dp31
S'username'
p32
Vnetease2
p33
sS'password'
p34
V123
p35
sS'total_online_time'
p36
F58.03500008583069
sS'last_login_time'
p37
F1451915657.57
ssL8002120761520L
(dp38
S'username'
p39
Vtest2
p40
sS'password'
p41
V123
p42
sS'total_online_time'
p43
F10.30400013923645
sS'last_login_time'
p44
F1451915657.57
ssL8162164474032L
(dp45
S'username'
p46
Vtest3
p47
sS'password'
p48
V123
p49
sS'total_online_time'
p50
F18.64900016784668
sS'last_login_time'
p51
F1451915657.57
ssL1928947150556048340762800L
(dp52
S'username'
p53
Vnetease1
p54
sS'password'
p55
V123
p56
sS'total_online_time'
p57
F49.8970000743866
sS'last_login_time'
p58
F1451915657.57
sss.